; Function Attrs: nounwind uwtable
define internal fastcc void @PrintHeader(ptr noundef %0, ptr noundef %1) unnamed_addr #0 {
  %3 = tail call ptr @N_VGetArrayPointer(ptr noundef %0) #7
  %4 = tail call ptr @N_VGetArrayPointer(ptr noundef %1) #7
  %puts = tail call i32 @puts(ptr nonnull dereferenceable(1) @str.1)
  %puts9 = tail call i32 @puts(ptr nonnull dereferenceable(1) @str.2)
  %puts10 = tail call i32 @puts(ptr nonnull dereferenceable(1) @str.3)
  %5 = load double, ptr %3, align 8, !tbaa !11
  %6 = getelementptr inbounds nuw i8, ptr %3, i64 8
  %7 = load double, ptr %6, align 8, !tbaa !11
  %8 = getelementptr inbounds nuw i8, ptr %3, i64 16
  %9 = load double, ptr %8, align 8, !tbaa !11
  %10 = tail call i32 (ptr, ...) @printf(ptr noundef nonnull dereferenceable(1) @.str.20, double noundef 1.000000e-04, double noundef %5, double noundef %7, double noundef %9)
  %11 = load double, ptr %4, align 8, !tbaa !11
  %12 = getelementptr inbounds nuw i8, ptr %4, i64 8
  %13 = load double, ptr %12, align 8, !tbaa !11
  %14 = getelementptr inbounds nuw i8, ptr %4, i64 16
  %15 = load double, ptr %14, align 8, !tbaa !11
  %16 = tail call i32 (ptr, ...) @printf(ptr noundef nonnull dereferenceable(1) @.str.21, double noundef %11, double noundef %13, double noundef %15)
  %puts11 = tail call i32 @puts(ptr nonnull dereferenceable(1) @str.4)
  %puts12 = tail call i32 @puts(ptr nonnull dereferenceable(1) @str.7)
  %17 = tail call i32 (ptr, ...) @printf(ptr noundef nonnull dereferenceable(1) @.str.24)
  %puts13 = tail call i32 @puts(ptr nonnull dereferenceable(1) @str.6)
  %puts14 = tail call i32 @puts(ptr nonnull dereferenceable(1) @str.7)
  ret void
}